###############################################################################
#                                                                             #
# IAR ANSI C/C++ Compiler V6.10.1.52143/W32 for ARM     28/Apr/2012  19:46:14 #
# Copyright 1999-2010 IAR Systems AB.                                         #
#                                                                             #
#    Cpu mode     =  thumb                                                    #
#    Endian       =  little                                                   #
#    Source file  =  C:\Documents and Settings\Administrator\iar\Myproject\42 #
#                    8IIC\src\Sources\C\Component_C\ftm.c                     #
#    Command line =  "C:\Documents and Settings\Administrator\iar\Myproject\4 #
#                    28IIC\src\Sources\C\Component_C\ftm.c" -D IAR -D         #
#                    TWR_K60N512 -lCN "C:\Documents and                       #
#                    Settings\Administrator\iar\Myproject\428IIC\bin\Ram\List #
#                    \" -lB "C:\Documents and Settings\Administrator\iar\Mypr #
#                    oject\428IIC\bin\Ram\List\" -o "C:\Documents and         #
#                    Settings\Administrator\iar\Myproject\428IIC\bin\Ram\Obj\ #
#                    " --no_cse --no_unroll --no_inline --no_code_motion      #
#                    --no_tbaa --no_clustering --no_scheduling --debug        #
#                    --endian=little --cpu=Cortex-M4 -e --fpu=None            #
#                    --dlib_config "D:\IAR Systems\Embedded Workbench         #
#                    6.0\arm\INC\c\DLib_Config_Normal.h" -I "C:\Documents     #
#                    and Settings\Administrator\iar\Myproject\428IIC\src\Sour #
#                    ces\H\" -I "C:\Documents and                             #
#                    Settings\Administrator\iar\Myproject\428IIC\src\Sources\ #
#                    H\Component_H\" -I "C:\Documents and                     #
#                    Settings\Administrator\iar\Myproject\428IIC\src\Sources\ #
#                    H\Frame_H\" -Ol --use_c++_inline                         #
#    List file    =  C:\Documents and Settings\Administrator\iar\Myproject\42 #
#                    8IIC\bin\Ram\List\ftm.lst                                #
#    Object file  =  C:\Documents and Settings\Administrator\iar\Myproject\42 #
#                    8IIC\bin\Ram\Obj\ftm.o                                   #
#                                                                             #
#                                                                             #
###############################################################################

C:\Documents and Settings\Administrator\iar\Myproject\428IIC\src\Sources\C\Component_C\ftm.c
      1          #include "ftm.h"
      2          

   \                                 In section .text, align 2, keep-with-next
      3          void hw_FTM_init(void)
      4              { PORTA_PCR12 = PORT_PCR_MUX(3); 
   \                     hw_FTM_init:
   \   00000000   ....               LDR.N    R0,??DataTable1  ;; 0x40049030
   \   00000002   4FF44071           MOV      R1,#+768
   \   00000006   0160               STR      R1,[R0, #+0]
      5                PORTA_PCR13 = PORT_PCR_MUX(3);
   \   00000008   ....               LDR.N    R0,??DataTable1_1  ;; 0x40049034
   \   0000000A   4FF44071           MOV      R1,#+768
   \   0000000E   0160               STR      R1,[R0, #+0]
      6                PORTB_PCR18 = PORT_PCR_MUX(3); 
   \   00000010   ....               LDR.N    R0,??DataTable1_2  ;; 0x4004a048
   \   00000012   4FF44071           MOV      R1,#+768
   \   00000016   0160               STR      R1,[R0, #+0]
      7                PORTB_PCR19 = PORT_PCR_MUX(3);
   \   00000018   ....               LDR.N    R0,??DataTable1_3  ;; 0x4004a04c
   \   0000001A   4FF44071           MOV      R1,#+768
   \   0000001E   0160               STR      R1,[R0, #+0]
      8                
      9                SIM_SCGC5 |= SIM_SCGC5_PORTA_MASK;
   \   00000020   ....               LDR.N    R0,??DataTable1_4  ;; 0x40048038
   \   00000022   0068               LDR      R0,[R0, #+0]
   \   00000024   4FF40071           MOV      R1,#+512
   \   00000028   0843               ORRS     R0,R1,R0
   \   0000002A   ....               LDR.N    R1,??DataTable1_4  ;; 0x40048038
   \   0000002C   0860               STR      R0,[R1, #+0]
     10                SIM_SCGC6|=SIM_SCGC6_FTM1_MASK;         //使能FTM时钟      
   \   0000002E   ....               LDR.N    R0,??DataTable1_5  ;; 0x4004803c
   \   00000030   0068               LDR      R0,[R0, #+0]
   \   00000032   50F00070           ORRS     R0,R0,#0x2000000
   \   00000036   ....               LDR.N    R1,??DataTable1_5  ;; 0x4004803c
   \   00000038   0860               STR      R0,[R1, #+0]
     11                SIM_SCGC3|=SIM_SCGC3_FTM2_MASK;
   \   0000003A   ....               LDR.N    R0,??DataTable1_6  ;; 0x40048030
   \   0000003C   0068               LDR      R0,[R0, #+0]
   \   0000003E   50F08070           ORRS     R0,R0,#0x1000000
   \   00000042   ....               LDR.N    R1,??DataTable1_6  ;; 0x40048030
   \   00000044   0860               STR      R0,[R1, #+0]
     12                
     13                FTM1_C0SC |= FTM_CnSC_ELSB_MASK;
   \   00000046   ....               LDR.N    R0,??DataTable1_7  ;; 0x4003900c
   \   00000048   0068               LDR      R0,[R0, #+0]
   \   0000004A   50F00800           ORRS     R0,R0,#0x8
   \   0000004E   ....               LDR.N    R1,??DataTable1_7  ;; 0x4003900c
   \   00000050   0860               STR      R0,[R1, #+0]
     14                FTM1_C0SC &= ~FTM_CnSC_ELSA_MASK;
   \   00000052   ....               LDR.N    R0,??DataTable1_7  ;; 0x4003900c
   \   00000054   0068               LDR      R0,[R0, #+0]
   \   00000056   30F00400           BICS     R0,R0,#0x4
   \   0000005A   ....               LDR.N    R1,??DataTable1_7  ;; 0x4003900c
   \   0000005C   0860               STR      R0,[R1, #+0]
     15                FTM1_C0SC |= FTM_CnSC_MSB_MASK;   
   \   0000005E   ....               LDR.N    R0,??DataTable1_7  ;; 0x4003900c
   \   00000060   0068               LDR      R0,[R0, #+0]
   \   00000062   50F02000           ORRS     R0,R0,#0x20
   \   00000066   ....               LDR.N    R1,??DataTable1_7  ;; 0x4003900c
   \   00000068   0860               STR      R0,[R1, #+0]
     16                FTM1_C1SC |= FTM_CnSC_ELSB_MASK;
   \   0000006A   ....               LDR.N    R0,??DataTable1_8  ;; 0x40039014
   \   0000006C   0068               LDR      R0,[R0, #+0]
   \   0000006E   50F00800           ORRS     R0,R0,#0x8
   \   00000072   ....               LDR.N    R1,??DataTable1_8  ;; 0x40039014
   \   00000074   0860               STR      R0,[R1, #+0]
     17                FTM1_C1SC &= ~FTM_CnSC_ELSA_MASK;
   \   00000076   ....               LDR.N    R0,??DataTable1_8  ;; 0x40039014
   \   00000078   0068               LDR      R0,[R0, #+0]
   \   0000007A   30F00400           BICS     R0,R0,#0x4
   \   0000007E   ....               LDR.N    R1,??DataTable1_8  ;; 0x40039014
   \   00000080   0860               STR      R0,[R1, #+0]
     18                FTM1_C1SC |= FTM_CnSC_MSB_MASK;  
   \   00000082   ....               LDR.N    R0,??DataTable1_8  ;; 0x40039014
   \   00000084   0068               LDR      R0,[R0, #+0]
   \   00000086   50F02000           ORRS     R0,R0,#0x20
   \   0000008A   ....               LDR.N    R1,??DataTable1_8  ;; 0x40039014
   \   0000008C   0860               STR      R0,[R1, #+0]
     19                FTM1_SC = 0x2D; //not enable the interrupt mask,up-down counting mode,System clock,Divide by 32            
   \   0000008E   ....               LDR.N    R0,??DataTable1_9  ;; 0x40039000
   \   00000090   2D21               MOVS     R1,#+45
   \   00000092   0160               STR      R1,[R0, #+0]
     20                
     21                FTM2_C0SC |= FTM_CnSC_ELSB_MASK;
   \   00000094   ....               LDR.N    R0,??DataTable1_10  ;; 0x400b800c
   \   00000096   0068               LDR      R0,[R0, #+0]
   \   00000098   50F00800           ORRS     R0,R0,#0x8
   \   0000009C   ....               LDR.N    R1,??DataTable1_10  ;; 0x400b800c
   \   0000009E   0860               STR      R0,[R1, #+0]
     22                FTM2_C0SC &= ~FTM_CnSC_ELSA_MASK;
   \   000000A0   ....               LDR.N    R0,??DataTable1_10  ;; 0x400b800c
   \   000000A2   0068               LDR      R0,[R0, #+0]
   \   000000A4   30F00400           BICS     R0,R0,#0x4
   \   000000A8   ....               LDR.N    R1,??DataTable1_10  ;; 0x400b800c
   \   000000AA   0860               STR      R0,[R1, #+0]
     23                FTM2_C0SC |= FTM_CnSC_MSB_MASK;   
   \   000000AC   ....               LDR.N    R0,??DataTable1_10  ;; 0x400b800c
   \   000000AE   0068               LDR      R0,[R0, #+0]
   \   000000B0   50F02000           ORRS     R0,R0,#0x20
   \   000000B4   ....               LDR.N    R1,??DataTable1_10  ;; 0x400b800c
   \   000000B6   0860               STR      R0,[R1, #+0]
     24                FTM2_C1SC |= FTM_CnSC_ELSB_MASK;
   \   000000B8   ....               LDR.N    R0,??DataTable1_11  ;; 0x400b8014
   \   000000BA   0068               LDR      R0,[R0, #+0]
   \   000000BC   50F00800           ORRS     R0,R0,#0x8
   \   000000C0   ....               LDR.N    R1,??DataTable1_11  ;; 0x400b8014
   \   000000C2   0860               STR      R0,[R1, #+0]
     25                FTM2_C1SC &= ~FTM_CnSC_ELSA_MASK;
   \   000000C4   ....               LDR.N    R0,??DataTable1_11  ;; 0x400b8014
   \   000000C6   0068               LDR      R0,[R0, #+0]
   \   000000C8   30F00400           BICS     R0,R0,#0x4
   \   000000CC   ....               LDR.N    R1,??DataTable1_11  ;; 0x400b8014
   \   000000CE   0860               STR      R0,[R1, #+0]
     26                FTM2_C1SC |= FTM_CnSC_MSB_MASK;  
   \   000000D0   ....               LDR.N    R0,??DataTable1_11  ;; 0x400b8014
   \   000000D2   0068               LDR      R0,[R0, #+0]
   \   000000D4   50F02000           ORRS     R0,R0,#0x20
   \   000000D8   ....               LDR.N    R1,??DataTable1_11  ;; 0x400b8014
   \   000000DA   0860               STR      R0,[R1, #+0]
     27                FTM2_SC = 0x2D; //not enable the interrupt mask,up-down counting mode,System clock,Divide by 32            
   \   000000DC   ....               LDR.N    R0,??DataTable1_12  ;; 0x400b8000
   \   000000DE   2D21               MOVS     R1,#+45
   \   000000E0   0160               STR      R1,[R0, #+0]
     28                      
     29                
     30                FTM1_MODE |= FTM_MODE_WPDIS_MASK;      
   \   000000E2   ....               LDR.N    R0,??DataTable1_13  ;; 0x40039054
   \   000000E4   0068               LDR      R0,[R0, #+0]
   \   000000E6   50F00400           ORRS     R0,R0,#0x4
   \   000000EA   ....               LDR.N    R1,??DataTable1_13  ;; 0x40039054
   \   000000EC   0860               STR      R0,[R1, #+0]
     31          
     32                FTM1_MODE &= ~1;
   \   000000EE   ....               LDR.N    R0,??DataTable1_13  ;; 0x40039054
   \   000000F0   0068               LDR      R0,[R0, #+0]
   \   000000F2   4008               LSRS     R0,R0,#+1
   \   000000F4   4000               LSLS     R0,R0,#+1
   \   000000F6   ....               LDR.N    R1,??DataTable1_13  ;; 0x40039054
   \   000000F8   0860               STR      R0,[R1, #+0]
     33                
     34                FTM2_MODE |= FTM_MODE_WPDIS_MASK;      
   \   000000FA   ....               LDR.N    R0,??DataTable1_14  ;; 0x400b8054
   \   000000FC   0068               LDR      R0,[R0, #+0]
   \   000000FE   50F00400           ORRS     R0,R0,#0x4
   \   00000102   ....               LDR.N    R1,??DataTable1_14  ;; 0x400b8054
   \   00000104   0860               STR      R0,[R1, #+0]
     35          
     36                      FTM2_MODE &= ~1;
   \   00000106   ....               LDR.N    R0,??DataTable1_14  ;; 0x400b8054
   \   00000108   0068               LDR      R0,[R0, #+0]
   \   0000010A   4008               LSRS     R0,R0,#+1
   \   0000010C   4000               LSLS     R0,R0,#+1
   \   0000010E   ....               LDR.N    R1,??DataTable1_14  ;; 0x400b8054
   \   00000110   0860               STR      R0,[R1, #+0]
     37               // FTM1_OUTMASK=0XFE;   //0 Channel output is not masked. It continues to operate normally.
     38                                     //1 Channel output is masked. It is forced to its inactive state.
     39                
     40                FTM1_COMBINE=0;      //Function for Linked Channels (FTMx_COMBINE)
   \   00000112   ....               LDR.N    R0,??DataTable1_15  ;; 0x40039064
   \   00000114   0021               MOVS     R1,#+0
   \   00000116   0160               STR      R1,[R0, #+0]
     41                FTM1_OUTINIT=0;
   \   00000118   ....               LDR.N    R0,??DataTable1_16  ;; 0x4003905c
   \   0000011A   0021               MOVS     R1,#+0
   \   0000011C   0160               STR      R1,[R0, #+0]
     42                FTM1_EXTTRIG=0;      //FTM External Trigger (FTMx_EXTTRIG)
   \   0000011E   ....               LDR.N    R0,??DataTable1_17  ;; 0x4003906c
   \   00000120   0021               MOVS     R1,#+0
   \   00000122   0160               STR      R1,[R0, #+0]
     43                FTM1_POL=0;          //Channels Polarity (FTMx_POL)
   \   00000124   ....               LDR.N    R0,??DataTable1_18  ;; 0x40039070
   \   00000126   0021               MOVS     R1,#+0
   \   00000128   0160               STR      R1,[R0, #+0]
     44                                     //0 The channel polarity is active high.
     45                                     //1 The channel polarity is active low.  
     46                FTM2_COMBINE=0;      //Function for Linked Channels (FTMx_COMBINE)
   \   0000012A   ....               LDR.N    R0,??DataTable1_19  ;; 0x400b8064
   \   0000012C   0021               MOVS     R1,#+0
   \   0000012E   0160               STR      R1,[R0, #+0]
     47                FTM2_OUTINIT=0;
   \   00000130   ....               LDR.N    R0,??DataTable1_20  ;; 0x400b805c
   \   00000132   0021               MOVS     R1,#+0
   \   00000134   0160               STR      R1,[R0, #+0]
     48                FTM2_EXTTRIG=0;      //FTM External Trigger (FTMx_EXTTRIG)
   \   00000136   ....               LDR.N    R0,??DataTable1_21  ;; 0x400b806c
   \   00000138   0021               MOVS     R1,#+0
   \   0000013A   0160               STR      R1,[R0, #+0]
     49                FTM2_POL=0;          //Channels Polarity (FTMx_POL)
   \   0000013C   ....               LDR.N    R0,??DataTable1_22  ;; 0x400b8070
   \   0000013E   0021               MOVS     R1,#+0
   \   00000140   0160               STR      R1,[R0, #+0]
     50                                           //0 The channel polarity is active high.
     51                                           //1 The channel polarity is active low.  
     52                FTM1_QDCTRL &=~FTM_QDCTRL_QUADEN_MASK;
   \   00000142   ....               LDR.N    R0,??DataTable1_23  ;; 0x40039080
   \   00000144   0068               LDR      R0,[R0, #+0]
   \   00000146   4008               LSRS     R0,R0,#+1
   \   00000148   4000               LSLS     R0,R0,#+1
   \   0000014A   ....               LDR.N    R1,??DataTable1_23  ;; 0x40039080
   \   0000014C   0860               STR      R0,[R1, #+0]
     53                FTM1_INVCTRL=0;     //反转控制
   \   0000014E   ....               LDR.N    R0,??DataTable1_24  ;; 0x40039090
   \   00000150   0021               MOVS     R1,#+0
   \   00000152   0160               STR      R1,[R0, #+0]
     54                FTM1_SWOCTRL=0;     //软件输出控制F TM Software Output Control (FTMx_SWOCTRL)
   \   00000154   ....               LDR.N    R0,??DataTable1_25  ;; 0x40039094
   \   00000156   0021               MOVS     R1,#+0
   \   00000158   0160               STR      R1,[R0, #+0]
     55                FTM1_PWMLOAD=0;     //FTM PWM Load
   \   0000015A   ....               LDR.N    R0,??DataTable1_26  ;; 0x40039098
   \   0000015C   0021               MOVS     R1,#+0
   \   0000015E   0160               STR      R1,[R0, #+0]
     56                                    //BIT9: 0 Loading updated values is disabled.
     57                                    //1 Loading updated values is enabled.
     58                FTM2_QDCTRL &=~FTM_QDCTRL_QUADEN_MASK;
   \   00000160   ....               LDR.N    R0,??DataTable1_27  ;; 0x400b8080
   \   00000162   0068               LDR      R0,[R0, #+0]
   \   00000164   4008               LSRS     R0,R0,#+1
   \   00000166   4000               LSLS     R0,R0,#+1
   \   00000168   ....               LDR.N    R1,??DataTable1_27  ;; 0x400b8080
   \   0000016A   0860               STR      R0,[R1, #+0]
     59                FTM2_INVCTRL=0;     //反转控制
   \   0000016C   ....               LDR.N    R0,??DataTable1_28  ;; 0x400b8090
   \   0000016E   0021               MOVS     R1,#+0
   \   00000170   0160               STR      R1,[R0, #+0]
     60                FTM2_SWOCTRL=0;     //软件输出控制F TM Software Output Control (FTMx_SWOCTRL)
   \   00000172   ....               LDR.N    R0,??DataTable1_29  ;; 0x400b8094
   \   00000174   0021               MOVS     R1,#+0
   \   00000176   0160               STR      R1,[R0, #+0]
     61                FTM2_PWMLOAD=0;     //FTM PWM Load
   \   00000178   ....               LDR.N    R0,??DataTable1_30  ;; 0x400b8098
   \   0000017A   0021               MOVS     R1,#+0
   \   0000017C   0160               STR      R1,[R0, #+0]
     62                                          //BIT9: 0 Loading updated values is disabled.
     63                                          //1 Loading updated values is enabled.
     64                FTM1_CNTIN=0;        //Counter Initial Value      
   \   0000017E   ....               LDR.N    R0,??DataTable1_31  ;; 0x4003904c
   \   00000180   0021               MOVS     R1,#+0
   \   00000182   0160               STR      R1,[R0, #+0]
     65                FTM1_MOD=15000;       //Modulo value,The EPWM period is determined by (MOD - CNTIN + 0x0001) 
   \   00000184   ....               LDR.N    R0,??DataTable1_32  ;; 0x40039008
   \   00000186   43F69821           MOVW     R1,#+15000
   \   0000018A   0160               STR      R1,[R0, #+0]
     66                                     //采用龙丘时钟初始化函数，可以得到4分频的频率，例如：系统60M频率时，PWM频率是15M,以此类推
     67                                     //PMW频率=系统频率/4/(2^FTM1_SC_PS)/FTM1_MOD
     68                                     //PMW频率=125M/4/(2^5)/19531=125000000/4/32/19531=50hz
     69                //PMW分频=125M/4/(2^5)=976562.5=1M,一个脉冲是1us,1500个脉冲就是1.5ms
     70                FTM2_CNTIN=0;        //Counter Initial Value      
   \   0000018C   ....               LDR.N    R0,??DataTable1_33  ;; 0x400b804c
   \   0000018E   0021               MOVS     R1,#+0
   \   00000190   0160               STR      R1,[R0, #+0]
     71                FTM2_MOD=15000;       //Modulo value,The EPWM period is determined by (MOD - CNTIN + 0x0001) 
   \   00000192   ....               LDR.N    R0,??DataTable1_34  ;; 0x400b8008
   \   00000194   43F69821           MOVW     R1,#+15000
   \   00000198   0160               STR      R1,[R0, #+0]
     72                                          //采用龙丘时钟初始化函数，可以得到4分频的频率，例如：系统60M频率时，PWM频率是15M,以此类推
     73                                          //PMW频率=系统频率/4/(2^FTM1_SC_PS)/FTM1_MOD
     74                                          //PMW频率=180M/4/(2^5)/28125=180000000/4/32/28125=50hz
     75                     //PMW分频=125M/4/(2^5)=976562.5=1M,一个脉冲是1us,1500个脉冲就是1.5ms
     76                FTM1_C0V= (int)(1000 / 1.3333) ;       //设置 the pulse width(duty cycle) is determined by (CnV - CNTIN).
   \   0000019A   ....               LDR.N    R0,??DataTable1_35  ;; 0x40039010
   \   0000019C   40F2EE21           MOVW     R1,#+750
   \   000001A0   0160               STR      R1,[R0, #+0]
     77                FTM1_C1V= (int)(1000 / 1.3333) ; 
   \   000001A2   ....               LDR.N    R0,??DataTable1_36  ;; 0x40039018
   \   000001A4   40F2EE21           MOVW     R1,#+750
   \   000001A8   0160               STR      R1,[R0, #+0]
     78                FTM1_CNT=0;          //只有低16位可用
   \   000001AA   ....               LDR.N    R0,??DataTable1_37  ;; 0x40039004
   \   000001AC   0021               MOVS     R1,#+0
   \   000001AE   0160               STR      R1,[R0, #+0]
     79                
     80                FTM2_C0V= (int)(1000 / 1.3333);        //设置 the pulse width(duty cycle) is determined by (CnV - CNTIN).
   \   000001B0   ....               LDR.N    R0,??DataTable1_38  ;; 0x400b8010
   \   000001B2   40F2EE21           MOVW     R1,#+750
   \   000001B6   0160               STR      R1,[R0, #+0]
     81                FTM2_C1V= (int)(1000 / 1.3333); 
   \   000001B8   ....               LDR.N    R0,??DataTable1_39  ;; 0x400b8018
   \   000001BA   40F2EE21           MOVW     R1,#+750
   \   000001BE   0160               STR      R1,[R0, #+0]
     82                FTM2_CNT=0;          //只有低16位可用
   \   000001C0   ....               LDR.N    R0,??DataTable1_40  ;; 0x400b8004
   \   000001C2   0021               MOVS     R1,#+0
   \   000001C4   0160               STR      R1,[R0, #+0]
     83          }
   \   000001C6   7047               BX       LR               ;; return

   \                                 In section .text, align 2, keep-with-next
     84          void set_pwm(uint16 a,uint16 b,uint16 c,uint16 d)
     85          {     FTM1_C0V = (int)(a / 1.3333);       //设置 the pulse width(duty cycle) is determined by (CnV - CNTIN).
   \                     set_pwm:
   \   00000000   70B5               PUSH     {R4-R6,LR}
   \   00000002   0C00               MOVS     R4,R1
   \   00000004   1600               MOVS     R6,R2
   \   00000006   1D00               MOVS     R5,R3
   \   00000008   80B2               UXTH     R0,R0            ;; ZeroExt  R0,R0,#+16,#+16
   \   0000000A   ........           BL       __aeabi_ui2d
   \   0000000E   ....               LDR.N    R2,??DataTable1_41  ;; 0x617c1bda
   \   00000010   ....               LDR.N    R3,??DataTable1_42  ;; 0x3ff55532
   \   00000012   ........           BL       __aeabi_ddiv
   \   00000016   ........           BL       __aeabi_d2iz
   \   0000001A   ....               LDR.N    R1,??DataTable1_35  ;; 0x40039010
   \   0000001C   0860               STR      R0,[R1, #+0]
     86                FTM1_C1V = (int)(b / 1.3333);
   \   0000001E   A4B2               UXTH     R4,R4            ;; ZeroExt  R4,R4,#+16,#+16
   \   00000020   2000               MOVS     R0,R4
   \   00000022   ........           BL       __aeabi_ui2d
   \   00000026   ....               LDR.N    R2,??DataTable1_41  ;; 0x617c1bda
   \   00000028   ....               LDR.N    R3,??DataTable1_42  ;; 0x3ff55532
   \   0000002A   ........           BL       __aeabi_ddiv
   \   0000002E   ........           BL       __aeabi_d2iz
   \   00000032   ....               LDR.N    R1,??DataTable1_36  ;; 0x40039018
   \   00000034   0860               STR      R0,[R1, #+0]
     87                FTM2_C0V = (int)(c / 1.3333);       //设置 the pulse width(duty cycle) is determined by (CnV - CNTIN).
   \   00000036   B6B2               UXTH     R6,R6            ;; ZeroExt  R6,R6,#+16,#+16
   \   00000038   3000               MOVS     R0,R6
   \   0000003A   ........           BL       __aeabi_ui2d
   \   0000003E   ....               LDR.N    R2,??DataTable1_41  ;; 0x617c1bda
   \   00000040   ....               LDR.N    R3,??DataTable1_42  ;; 0x3ff55532
   \   00000042   ........           BL       __aeabi_ddiv
   \   00000046   ........           BL       __aeabi_d2iz
   \   0000004A   ....               LDR.N    R1,??DataTable1_38  ;; 0x400b8010
   \   0000004C   0860               STR      R0,[R1, #+0]
     88                FTM2_C1V = (int)(d / 1.3333);
   \   0000004E   ADB2               UXTH     R5,R5            ;; ZeroExt  R5,R5,#+16,#+16
   \   00000050   2800               MOVS     R0,R5
   \   00000052   ........           BL       __aeabi_ui2d
   \   00000056   ....               LDR.N    R2,??DataTable1_41  ;; 0x617c1bda
   \   00000058   ....               LDR.N    R3,??DataTable1_42  ;; 0x3ff55532
   \   0000005A   ........           BL       __aeabi_ddiv
   \   0000005E   ........           BL       __aeabi_d2iz
   \   00000062   ....               LDR.N    R1,??DataTable1_39  ;; 0x400b8018
   \   00000064   0860               STR      R0,[R1, #+0]
     89          }
   \   00000066   70BD               POP      {R4-R6,PC}       ;; return

   \                                 In section .text, align 4, keep-with-next
   \                     ??DataTable1:
   \   00000000   30900440           DC32     0x40049030

   \                                 In section .text, align 4, keep-with-next
   \                     ??DataTable1_1:
   \   00000000   34900440           DC32     0x40049034

   \                                 In section .text, align 4, keep-with-next
   \                     ??DataTable1_2:
   \   00000000   48A00440           DC32     0x4004a048

   \                                 In section .text, align 4, keep-with-next
   \                     ??DataTable1_3:
   \   00000000   4CA00440           DC32     0x4004a04c

   \                                 In section .text, align 4, keep-with-next
   \                     ??DataTable1_4:
   \   00000000   38800440           DC32     0x40048038

   \                                 In section .text, align 4, keep-with-next
   \                     ??DataTable1_5:
   \   00000000   3C800440           DC32     0x4004803c

   \                                 In section .text, align 4, keep-with-next
   \                     ??DataTable1_6:
   \   00000000   30800440           DC32     0x40048030

   \                                 In section .text, align 4, keep-with-next
   \                     ??DataTable1_7:
   \   00000000   0C900340           DC32     0x4003900c

   \                                 In section .text, align 4, keep-with-next
   \                     ??DataTable1_8:
   \   00000000   14900340           DC32     0x40039014

   \                                 In section .text, align 4, keep-with-next
   \                     ??DataTable1_9:
   \   00000000   00900340           DC32     0x40039000

   \                                 In section .text, align 4, keep-with-next
   \                     ??DataTable1_10:
   \   00000000   0C800B40           DC32     0x400b800c

   \                                 In section .text, align 4, keep-with-next
   \                     ??DataTable1_11:
   \   00000000   14800B40           DC32     0x400b8014

   \                                 In section .text, align 4, keep-with-next
   \                     ??DataTable1_12:
   \   00000000   00800B40           DC32     0x400b8000

   \                                 In section .text, align 4, keep-with-next
   \                     ??DataTable1_13:
   \   00000000   54900340           DC32     0x40039054

   \                                 In section .text, align 4, keep-with-next
   \                     ??DataTable1_14:
   \   00000000   54800B40           DC32     0x400b8054

   \                                 In section .text, align 4, keep-with-next
   \                     ??DataTable1_15:
   \   00000000   64900340           DC32     0x40039064

   \                                 In section .text, align 4, keep-with-next
   \                     ??DataTable1_16:
   \   00000000   5C900340           DC32     0x4003905c

   \                                 In section .text, align 4, keep-with-next
   \                     ??DataTable1_17:
   \   00000000   6C900340           DC32     0x4003906c

   \                                 In section .text, align 4, keep-with-next
   \                     ??DataTable1_18:
   \   00000000   70900340           DC32     0x40039070

   \                                 In section .text, align 4, keep-with-next
   \                     ??DataTable1_19:
   \   00000000   64800B40           DC32     0x400b8064

   \                                 In section .text, align 4, keep-with-next
   \                     ??DataTable1_20:
   \   00000000   5C800B40           DC32     0x400b805c

   \                                 In section .text, align 4, keep-with-next
   \                     ??DataTable1_21:
   \   00000000   6C800B40           DC32     0x400b806c

   \                                 In section .text, align 4, keep-with-next
   \                     ??DataTable1_22:
   \   00000000   70800B40           DC32     0x400b8070

   \                                 In section .text, align 4, keep-with-next
   \                     ??DataTable1_23:
   \   00000000   80900340           DC32     0x40039080

   \                                 In section .text, align 4, keep-with-next
   \                     ??DataTable1_24:
   \   00000000   90900340           DC32     0x40039090

   \                                 In section .text, align 4, keep-with-next
   \                     ??DataTable1_25:
   \   00000000   94900340           DC32     0x40039094

   \                                 In section .text, align 4, keep-with-next
   \                     ??DataTable1_26:
   \   00000000   98900340           DC32     0x40039098

   \                                 In section .text, align 4, keep-with-next
   \                     ??DataTable1_27:
   \   00000000   80800B40           DC32     0x400b8080

   \                                 In section .text, align 4, keep-with-next
   \                     ??DataTable1_28:
   \   00000000   90800B40           DC32     0x400b8090

   \                                 In section .text, align 4, keep-with-next
   \                     ??DataTable1_29:
   \   00000000   94800B40           DC32     0x400b8094

   \                                 In section .text, align 4, keep-with-next
   \                     ??DataTable1_30:
   \   00000000   98800B40           DC32     0x400b8098

   \                                 In section .text, align 4, keep-with-next
   \                     ??DataTable1_31:
   \   00000000   4C900340           DC32     0x4003904c

   \                                 In section .text, align 4, keep-with-next
   \                     ??DataTable1_32:
   \   00000000   08900340           DC32     0x40039008

   \                                 In section .text, align 4, keep-with-next
   \                     ??DataTable1_33:
   \   00000000   4C800B40           DC32     0x400b804c

   \                                 In section .text, align 4, keep-with-next
   \                     ??DataTable1_34:
   \   00000000   08800B40           DC32     0x400b8008

   \                                 In section .text, align 4, keep-with-next
   \                     ??DataTable1_35:
   \   00000000   10900340           DC32     0x40039010

   \                                 In section .text, align 4, keep-with-next
   \                     ??DataTable1_36:
   \   00000000   18900340           DC32     0x40039018

   \                                 In section .text, align 4, keep-with-next
   \                     ??DataTable1_37:
   \   00000000   04900340           DC32     0x40039004

   \                                 In section .text, align 4, keep-with-next
   \                     ??DataTable1_38:
   \   00000000   10800B40           DC32     0x400b8010

   \                                 In section .text, align 4, keep-with-next
   \                     ??DataTable1_39:
   \   00000000   18800B40           DC32     0x400b8018

   \                                 In section .text, align 4, keep-with-next
   \                     ??DataTable1_40:
   \   00000000   04800B40           DC32     0x400b8004

   \                                 In section .text, align 4, keep-with-next
   \                     ??DataTable1_41:
   \   00000000   DA1B7C61           DC32     0x617c1bda

   \                                 In section .text, align 4, keep-with-next
   \                     ??DataTable1_42:
   \   00000000   3255F53F           DC32     0x3ff55532

   Maximum stack usage in bytes:

     Function    .cstack
     --------    -------
     hw_FTM_init      0
     set_pwm         16


   Section sizes:

     Function/Label  Bytes
     --------------  -----
     hw_FTM_init      456
     set_pwm          104
     ??DataTable1       4
     ??DataTable1_1     4
     ??DataTable1_2     4
     ??DataTable1_3     4
     ??DataTable1_4     4
     ??DataTable1_5     4
     ??DataTable1_6     4
     ??DataTable1_7     4
     ??DataTable1_8     4
     ??DataTable1_9     4
     ??DataTable1_10    4
     ??DataTable1_11    4
     ??DataTable1_12    4
     ??DataTable1_13    4
     ??DataTable1_14    4
     ??DataTable1_15    4
     ??DataTable1_16    4
     ??DataTable1_17    4
     ??DataTable1_18    4
     ??DataTable1_19    4
     ??DataTable1_20    4
     ??DataTable1_21    4
     ??DataTable1_22    4
     ??DataTable1_23    4
     ??DataTable1_24    4
     ??DataTable1_25    4
     ??DataTable1_26    4
     ??DataTable1_27    4
     ??DataTable1_28    4
     ??DataTable1_29    4
     ??DataTable1_30    4
     ??DataTable1_31    4
     ??DataTable1_32    4
     ??DataTable1_33    4
     ??DataTable1_34    4
     ??DataTable1_35    4
     ??DataTable1_36    4
     ??DataTable1_37    4
     ??DataTable1_38    4
     ??DataTable1_39    4
     ??DataTable1_40    4
     ??DataTable1_41    4
     ??DataTable1_42    4

 
 732 bytes in section .text
 
 732 bytes of CODE memory

Errors: none
Warnings: none
